; Function Attrs: mustprogress uwtable
define hidden void @_ZN3mbp10term_graph7displayERSo(ptr noundef nonnull readonly align 8 captures(none) dereferenceable(244) %0, ptr noundef nonnull align 8 dereferenceable(8) %1) local_unnamed_addr #3 align 2 {
  %3 = getelementptr inbounds nuw i8, ptr %0, i64 8
  %4 = load ptr, ptr %3, align 8, !tbaa !45
  %5 = icmp eq ptr %4, null
  br i1 %5, label %._crit_edge, label %_ZN6vectorIPN3mbp4termELb0EjE3endEv.exit

_ZN6vectorIPN3mbp4termELb0EjE3endEv.exit:         ; preds = %2
  %6 = getelementptr inbounds i8, ptr %4, i64 -4
  %7 = load i32, ptr %6, align 4, !tbaa !34
  %8 = zext i32 %7 to i64
  %9 = getelementptr inbounds nuw ptr, ptr %4, i64 %8
  %.not9 = icmp eq i32 %7, 0
  br i1 %.not9, label %._crit_edge, label %.lr.ph

._crit_edge:                                      ; preds = %.lr.ph, %2, %_ZN6vectorIPN3mbp4termELb0EjE3endEv.exit
  ret void

.lr.ph:                                           ; preds = %_ZN6vectorIPN3mbp4termELb0EjE3endEv.exit, %.lr.ph
  %.010 = phi ptr [ %12, %.lr.ph ], [ %4, %_ZN6vectorIPN3mbp4termELb0EjE3endEv.exit ]
  %10 = load ptr, ptr %.010, align 8, !tbaa !46
  %11 = tail call noundef nonnull align 8 dereferenceable(8) ptr @_ZNK3mbp4term7displayERSo(ptr noundef nonnull align 8 dereferenceable(88) %10, ptr noundef nonnull align 8 dereferenceable(8) %1)
  %12 = getelementptr inbounds nuw i8, ptr %.010, i64 8
  %.not = icmp eq ptr %12, %9
  br i1 %.not, label %._crit_edge, label %.lr.ph
}